target datalayout = "e-m:e-p270:32:32-p271:32:32-p272:64:64-i64:64-i128:128-f80:128-n8:16:32:64-S128"
target triple = "x86_64-pc-linux-gnu"

%struct.client = type { i64, i64, ptr, i8, i8, i8, i8, i32, ptr, ptr, ptr, ptr, ptr, i64, i64, i32, ptr, i32, i32, ptr, i64, ptr, ptr, ptr, ptr, ptr, i32, i32, i64, ptr, i64, ptr, i64, i64, i64, i32, ptr, i64, i64, i32, i32, i32, i32, i64, i64, ptr, i64, i64, i64, i64, i64, i64, i64, i64, [41 x i8], i32, ptr, i32, i32, i64, %struct.multiState, %struct.blockingState, i64, ptr, ptr, ptr, ptr, ptr, ptr, ptr, ptr, ptr, ptr, ptr, ptr, ptr, ptr, i64, ptr, i64, i32, ptr, ptr, ptr, i64, %struct.listNode, i64, i64, i32, i64, ptr }
%struct.multiState = type { ptr, i32, i32, i32, i64, i32 }
%struct.blockingState = type { i32, i64, i32, ptr, i32, i32, i64, ptr, ptr, i64 }
%struct.listNode = type { ptr, ptr, ptr }

@.str.29 = private unnamed_addr constant [6 x i8] c"$-1\0D\0A\00", align 1
@.str.30 = private unnamed_addr constant [4 x i8] c"_\0D\0A\00", align 1

; Function Attrs: nounwind uwtable
define dso_local void @addReplyNull(ptr noundef %0) #0 {
  %2 = alloca ptr, align 8
  store ptr %0, ptr %2, align 8, !tbaa !24
  %3 = load ptr, ptr %2, align 8, !tbaa !24
  %4 = getelementptr inbounds nuw %struct.client, ptr %3, i32 0, i32 7
  %5 = load i32, ptr %4, align 4, !tbaa !74
  %6 = icmp eq i32 %5, 2
  br i1 %6, label %7, label %9

7:                                                ; preds = %1
  %8 = load ptr, ptr %2, align 8, !tbaa !24
  call void @addReplyProto(ptr noundef %8, ptr noundef @.str.29, i64 noundef 5)
  br label %11

9:                                                ; preds = %1
  %10 = load ptr, ptr %2, align 8, !tbaa !24
  call void @addReplyProto(ptr noundef %10, ptr noundef @.str.30, i64 noundef 3)
  br label %11

11:                                               ; preds = %9, %7
  ret void
}

; Function Attrs: nounwind uwtable
define dso_local void @addReplyBulkCString(ptr noundef %0, ptr noundef %1) #0 {
  %3 = alloca ptr, align 8
  %4 = alloca ptr, align 8
  store ptr %0, ptr %3, align 8, !tbaa !24
  store ptr %1, ptr %4, align 8, !tbaa !5
  %5 = load ptr, ptr %4, align 8, !tbaa !5
  %6 = icmp eq ptr %5, null
  br i1 %6, label %7, label %9

7:                                                ; preds = %2
  %8 = load ptr, ptr %3, align 8, !tbaa !24
  call void @addReplyNull(ptr noundef %8)
  br label %14

9:                                                ; preds = %2
  %10 = load ptr, ptr %3, align 8, !tbaa !24
  %11 = load ptr, ptr %4, align 8, !tbaa !5
  %12 = load ptr, ptr %4, align 8, !tbaa !5
  %13 = call i64 @strlen(ptr noundef %12) #20
  call void @addReplyBulkCBuffer(ptr noundef %10, ptr noundef %11, i64 noundef %13)
  br label %14

14:                                               ; preds = %9, %7
  ret void
}