; Function Attrs: nounwind uwtable
define dso_local void @addReplyBulkCString(ptr noundef %0, ptr noundef readonly captures(address_is_null) %1) local_unnamed_addr #0 {
  %3 = icmp eq ptr %1, null
  br i1 %3, label %4, label %10

4:                                                ; preds = %2
  %5 = getelementptr inbounds nuw i8, ptr %0, i64 28
  %6 = load i32, ptr %5, align 4, !tbaa !74
  %7 = icmp eq i32 %6, 2
  br i1 %7, label %8, label %9

8:                                                ; preds = %4
  tail call void @addReplyProto(ptr noundef nonnull %0, ptr noundef nonnull @.str.29, i64 noundef 5)
  br label %addReplyNull.exit

9:                                                ; preds = %4
  tail call void @addReplyProto(ptr noundef nonnull %0, ptr noundef nonnull @.str.30, i64 noundef 3)
  br label %addReplyNull.exit

10:                                               ; preds = %2
  %11 = tail call i64 @strlen(ptr noundef nonnull dereferenceable(1) %1) #30
  tail call void @addReplyBulkCBuffer(ptr noundef %0, ptr noundef nonnull %1, i64 noundef %11)
  br label %addReplyNull.exit

addReplyNull.exit:                                ; preds = %9, %8, %10
  ret void
}